; ModuleID = '47/4947.c'
source_filename = "47/4947.c"
target datalayout = "e-m:e-p270:32:32-p271:32:32-p272:64:64-i64:64-f80:128-n8:16:32:64-S128"
target triple = "x86_64-pc-linux-gnu"

@.str = private unnamed_addr constant [3 x i8] c"%d\00", align 1
@.str.1 = private unnamed_addr constant [2 x i8] c"\0A\00", align 1
@.str.2 = private unnamed_addr constant [4 x i8] c"%d \00", align 1

; Function Attrs: noinline nounwind uwtable
define dso_local void @main() #0 {
  %1 = alloca i32, align 4
  %2 = alloca i32, align 4
  %3 = alloca [100 x i32], align 16
  %4 = alloca i32*, align 8
  %5 = getelementptr inbounds [100 x i32], [100 x i32]* %3, i64 0, i64 0
  store i32* %5, i32** %4, align 8
  %6 = call i32 (i8*, ...) @__isoc99_scanf(i8* getelementptr inbounds ([3 x i8], [3 x i8]* @.str, i64 0, i64 0), i32* %2)
  store i32 0, i32* %1, align 4
  br label %7

7:                                                ; preds = %14, %0
  %8 = load i32, i32* %1, align 4
  %9 = load i32, i32* %2, align 4
  %10 = icmp slt i32 %8, %9
  br i1 %10, label %11, label %19

11:                                               ; preds = %7
  %12 = load i32*, i32** %4, align 8
  %13 = call i32 (i8*, ...) @__isoc99_scanf(i8* getelementptr inbounds ([3 x i8], [3 x i8]* @.str, i64 0, i64 0), i32* %12)
  br label %14

14:                                               ; preds = %11
  %15 = load i32, i32* %1, align 4
  %16 = add nsw i32 %15, 1
  store i32 %16, i32* %1, align 4
  %17 = load i32*, i32** %4, align 8
  %18 = getelementptr inbounds i32, i32* %17, i32 1
  store i32* %18, i32** %4, align 8
  br label %7

19:                                               ; preds = %7
  %20 = call i32 (i8*, ...) @printf(i8* getelementptr inbounds ([2 x i8], [2 x i8]* @.str.1, i64 0, i64 0))
  %21 = getelementptr inbounds [100 x i32], [100 x i32]* %3, i64 0, i64 0
  store i32* %21, i32** %4, align 8
  %22 = load i32*, i32** %4, align 8
  %23 = load i32, i32* %2, align 4
  call void @change(i32* %22, i32 %23)
  %24 = getelementptr inbounds [100 x i32], [100 x i32]* %3, i64 0, i64 0
  store i32* %24, i32** %4, align 8
  br label %25

25:                                               ; preds = %37, %19
  %26 = load i32*, i32** %4, align 8
  %27 = getelementptr inbounds [100 x i32], [100 x i32]* %3, i64 0, i64 0
  %28 = load i32, i32* %2, align 4
  %29 = sext i32 %28 to i64
  %30 = getelementptr inbounds i32, i32* %27, i64 %29
  %31 = getelementptr inbounds i32, i32* %30, i64 -1
  %32 = icmp ult i32* %26, %31
  br i1 %32, label %33, label %40

33:                                               ; preds = %25
  %34 = load i32*, i32** %4, align 8
  %35 = load i32, i32* %34, align 4
  %36 = call i32 (i8*, ...) @printf(i8* getelementptr inbounds ([4 x i8], [4 x i8]* @.str.2, i64 0, i64 0), i32 %35)
  br label %37

37:                                               ; preds = %33
  %38 = load i32*, i32** %4, align 8
  %39 = getelementptr inbounds i32, i32* %38, i32 1
  store i32* %39, i32** %4, align 8
  br label %25

40:                                               ; preds = %25
  %41 = load i32*, i32** %4, align 8
  %42 = load i32, i32* %41, align 4
  %43 = call i32 (i8*, ...) @printf(i8* getelementptr inbounds ([3 x i8], [3 x i8]* @.str, i64 0, i64 0), i32 %42)
  ret void
}

declare dso_local i32 @__isoc99_scanf(i8*, ...) #1

declare dso_local i32 @printf(i8*, ...) #1

; Function Attrs: noinline nounwind uwtable
define dso_local void @change(i32* %0, i32 %1) #0 {
  %3 = alloca i32*, align 8
  %4 = alloca i32, align 4
  %5 = alloca i32*, align 8
  %6 = alloca i32*, align 8
  %7 = alloca i32*, align 8
  %8 = alloca i32, align 4
  %9 = alloca i32, align 4
  store i32* %0, i32** %3, align 8
  store i32 %1, i32* %4, align 4
  %10 = load i32, i32* %4, align 4
  %11 = sub nsw i32 %10, 1
  %12 = sdiv i32 %11, 2
  store i32 %12, i32* %8, align 4
  %13 = load i32*, i32** %3, align 8
  %14 = load i32, i32* %8, align 4
  %15 = sext i32 %14 to i64
  %16 = getelementptr inbounds i32, i32* %13, i64 %15
  store i32* %16, i32** %6, align 8
  %17 = load i32*, i32** %3, align 8
  store i32* %17, i32** %5, align 8
  %18 = load i32*, i32** %5, align 8
  %19 = load i32, i32* %4, align 4
  %20 = sext i32 %19 to i64
  %21 = getelementptr inbounds i32, i32* %18, i64 %20
  %22 = getelementptr inbounds i32, i32* %21, i64 -1
  store i32* %22, i32** %7, align 8
  br label %23

23:                                               ; preds = %35, %2
  %24 = load i32*, i32** %5, align 8
  %25 = load i32*, i32** %6, align 8
  %26 = icmp ule i32* %24, %25
  br i1 %26, label %27, label %40

27:                                               ; preds = %23
  %28 = load i32*, i32** %5, align 8
  %29 = load i32, i32* %28, align 4
  store i32 %29, i32* %9, align 4
  %30 = load i32*, i32** %7, align 8
  %31 = load i32, i32* %30, align 4
  %32 = load i32*, i32** %5, align 8
  store i32 %31, i32* %32, align 4
  %33 = load i32, i32* %9, align 4
  %34 = load i32*, i32** %7, align 8
  store i32 %33, i32* %34, align 4
  br label %35

35:                                               ; preds = %27
  %36 = load i32*, i32** %5, align 8
  %37 = getelementptr inbounds i32, i32* %36, i32 1
  store i32* %37, i32** %5, align 8
  %38 = load i32*, i32** %7, align 8
  %39 = getelementptr inbounds i32, i32* %38, i32 -1
  store i32* %39, i32** %7, align 8
  br label %23

40:                                               ; preds = %23
  ret void
}


!llvm.module.flags = !{!0}
!llvm.ident = !{!1}

!0 = !{i32 1, !"wchar_size", i32 4}
!1 = !{!"clang version 10.0.0-4ubuntu1 "}
